; Function Attrs: inlinehint mustprogress nounwind uwtable
define internal void @_ZN9grpc_core12_GLOBAL__N_118OutlierDetectionLb13EjectionTimerD2Ev(ptr noundef nonnull readonly align 8 captures(none) dereferenceable(344) %0) unnamed_addr #14 align 2 personality ptr @__gxx_personality_v0 {
  %2 = getelementptr inbounds nuw i8, ptr %0, i64 16
  %.val = load ptr, ptr %2, align 8, !tbaa !191
  %.not.i = icmp eq ptr %.val, null
  br i1 %.not.i, label %_ZN9grpc_core13RefCountedPtrINS_12_GLOBAL__N_118OutlierDetectionLbEED2Ev.exit, label %3

3:                                                ; preds = %1
  %4 = getelementptr inbounds nuw i8, ptr %.val, i64 8
  %5 = atomicrmw sub ptr %4, i64 1 acq_rel, align 8
  %6 = icmp eq i64 %5, 1
  br i1 %6, label %7, label %_ZN9grpc_core13RefCountedPtrINS_12_GLOBAL__N_118OutlierDetectionLbEED2Ev.exit, !prof !99

7:                                                ; preds = %3
  %8 = load ptr, ptr %.val, align 8, !tbaa !4
  %9 = getelementptr inbounds nuw i8, ptr %8, i64 16
  %10 = load ptr, ptr %9, align 8
  tail call void %10(ptr noundef nonnull align 8 dereferenceable(56) %.val) #36
  br label %_ZN9grpc_core13RefCountedPtrINS_12_GLOBAL__N_118OutlierDetectionLbEED2Ev.exit

_ZN9grpc_core13RefCountedPtrINS_12_GLOBAL__N_118OutlierDetectionLbEED2Ev.exit: ; preds = %1, %3, %7
  ret void
}